; Function Attrs: mustprogress nofree norecurse nosync nounwind willreturn memory(read, argmem: readwrite, inaccessiblemem: none) uwtable
define hidden void @_ZNK10bit_matrix3row3endEv(ptr dead_on_unwind noalias writable writeonly sret(%"class.bit_matrix::col_iterator") align 8 captures(none) initializes((0, 20)) %0, ptr noundef nonnull readonly align 8 captures(none) dereferenceable(16) %1) local_unnamed_addr #4 align 2 {
  tail call void @llvm.memcpy.p0.p0.i64(ptr noundef nonnull align 8 dereferenceable(20) %0, ptr noundef nonnull align 8 dereferenceable(16) %1, i64 16, i1 false), !tbaa.struct !3
  %3 = getelementptr inbounds nuw i8, ptr %0, i64 16
  %4 = load ptr, ptr %1, align 8, !tbaa !30
  %5 = getelementptr inbounds nuw i8, ptr %4, i64 40
  %6 = load i32, ptr %5, align 8, !tbaa !19
  store i32 %6, ptr %3, align 8, !tbaa !11
  ret void
}